; ModuleID = '46/21.c'
source_filename = "46/21.c"
target datalayout = "e-m:e-p270:32:32-p271:32:32-p272:64:64-i64:64-f80:128-n8:16:32:64-S128"
target triple = "x86_64-pc-linux-gnu"

@.str = private unnamed_addr constant [6 x i8] c"%d %d\00", align 1
@.str.1 = private unnamed_addr constant [3 x i8] c"%d\00", align 1
@.str.2 = private unnamed_addr constant [4 x i8] c"%d\0A\00", align 1

; Function Attrs: noinline nounwind uwtable
define dso_local i32 @main() #0 {
  %1 = alloca i32, align 4
  %2 = alloca [101 x [101 x i32]], align 16
  %3 = alloca i32, align 4
  %4 = alloca i32, align 4
  %5 = alloca [101 x [101 x i32]], align 16
  %6 = alloca i32, align 4
  %7 = alloca i32, align 4
  %8 = alloca i32, align 4
  %9 = alloca i32, align 4
  store i32 0, i32* %1, align 4
  %10 = bitcast [101 x [101 x i32]]* %5 to i8*
  call void @llvm.memset.p0i8.i64(i8* align 16 %10, i8 0, i64 40804, i1 false)
  %11 = bitcast i8* %10 to <{ <{ i32, [100 x i32] }>, [100 x <{ i32, [100 x i32] }>] }>*
  %12 = getelementptr inbounds <{ <{ i32, [100 x i32] }>, [100 x <{ i32, [100 x i32] }>] }>, <{ <{ i32, [100 x i32] }>, [100 x <{ i32, [100 x i32] }>] }>* %11, i32 0, i32 0
  %13 = getelementptr inbounds <{ i32, [100 x i32] }>, <{ i32, [100 x i32] }>* %12, i32 0, i32 0
  store i32 1, i32* %13, align 16
  store i32 0, i32* %8, align 4
  store i32 0, i32* %9, align 4
  %14 = call i32 (i8*, ...) @__isoc99_scanf(i8* getelementptr inbounds ([6 x i8], [6 x i8]* @.str, i64 0, i64 0), i32* %7, i32* %6)
  store i32 0, i32* %3, align 4
  br label %15

15:                                               ; preds = %37, %0
  %16 = load i32, i32* %3, align 4
  %17 = load i32, i32* %7, align 4
  %18 = icmp slt i32 %16, %17
  br i1 %18, label %19, label %40

19:                                               ; preds = %15
  store i32 0, i32* %4, align 4
  br label %20

20:                                               ; preds = %33, %19
  %21 = load i32, i32* %4, align 4
  %22 = load i32, i32* %6, align 4
  %23 = icmp slt i32 %21, %22
  br i1 %23, label %24, label %36

24:                                               ; preds = %20
  %25 = load i32, i32* %3, align 4
  %26 = sext i32 %25 to i64
  %27 = getelementptr inbounds [101 x [101 x i32]], [101 x [101 x i32]]* %2, i64 0, i64 %26
  %28 = getelementptr inbounds [101 x i32], [101 x i32]* %27, i64 0, i64 0
  %29 = load i32, i32* %4, align 4
  %30 = sext i32 %29 to i64
  %31 = getelementptr inbounds i32, i32* %28, i64 %30
  %32 = call i32 (i8*, ...) @__isoc99_scanf(i8* getelementptr inbounds ([3 x i8], [3 x i8]* @.str.1, i64 0, i64 0), i32* %31)
  br label %33

33:                                               ; preds = %24
  %34 = load i32, i32* %4, align 4
  %35 = add nsw i32 %34, 1
  store i32 %35, i32* %4, align 4
  br label %20

36:                                               ; preds = %20
  br label %37

37:                                               ; preds = %36
  %38 = load i32, i32* %3, align 4
  %39 = add nsw i32 %38, 1
  store i32 %39, i32* %3, align 4
  br label %15

40:                                               ; preds = %15
  %41 = getelementptr inbounds [101 x [101 x i32]], [101 x [101 x i32]]* %2, i64 0, i64 0
  %42 = getelementptr inbounds [101 x i32], [101 x i32]* %41, i64 0, i64 0
  %43 = load i32, i32* %42, align 16
  %44 = call i32 (i8*, ...) @printf(i8* getelementptr inbounds ([4 x i8], [4 x i8]* @.str.2, i64 0, i64 0), i32 %43)
  br label %45

45:                                               ; preds = %40, %225
  %46 = load i32, i32* %8, align 4
  %47 = sext i32 %46 to i64
  %48 = getelementptr inbounds [101 x [101 x i32]], [101 x [101 x i32]]* %5, i64 0, i64 %47
  %49 = load i32, i32* %9, align 4
  %50 = add nsw i32 %49, 1
  store i32 %50, i32* %9, align 4
  %51 = sext i32 %50 to i64
  %52 = getelementptr inbounds [101 x i32], [101 x i32]* %48, i64 0, i64 %51
  %53 = load i32, i32* %52, align 4
  %54 = icmp ne i32 %53, 0
  br i1 %54, label %55, label %56

55:                                               ; preds = %45
  br label %228

56:                                               ; preds = %45
  br label %57

57:                                               ; preds = %72, %56
  %58 = load i32, i32* %8, align 4
  %59 = sext i32 %58 to i64
  %60 = getelementptr inbounds [101 x [101 x i32]], [101 x [101 x i32]]* %5, i64 0, i64 %59
  %61 = load i32, i32* %9, align 4
  %62 = sext i32 %61 to i64
  %63 = getelementptr inbounds [101 x i32], [101 x i32]* %60, i64 0, i64 %62
  %64 = load i32, i32* %63, align 4
  %65 = icmp eq i32 %64, 0
  br i1 %65, label %66, label %70

66:                                               ; preds = %57
  %67 = load i32, i32* %9, align 4
  %68 = load i32, i32* %6, align 4
  %69 = icmp slt i32 %67, %68
  br label %70

70:                                               ; preds = %66, %57
  %71 = phi i1 [ false, %57 ], [ %69, %66 ]
  br i1 %71, label %72, label %89

72:                                               ; preds = %70
  %73 = load i32, i32* %8, align 4
  %74 = sext i32 %73 to i64
  %75 = getelementptr inbounds [101 x [101 x i32]], [101 x [101 x i32]]* %2, i64 0, i64 %74
  %76 = load i32, i32* %9, align 4
  %77 = sext i32 %76 to i64
  %78 = getelementptr inbounds [101 x i32], [101 x i32]* %75, i64 0, i64 %77
  %79 = load i32, i32* %78, align 4
  %80 = call i32 (i8*, ...) @printf(i8* getelementptr inbounds ([4 x i8], [4 x i8]* @.str.2, i64 0, i64 0), i32 %79)
  %81 = load i32, i32* %8, align 4
  %82 = sext i32 %81 to i64
  %83 = getelementptr inbounds [101 x [101 x i32]], [101 x [101 x i32]]* %5, i64 0, i64 %82
  %84 = load i32, i32* %9, align 4
  %85 = sext i32 %84 to i64
  %86 = getelementptr inbounds [101 x i32], [101 x i32]* %83, i64 0, i64 %85
  store i32 1, i32* %86, align 4
  %87 = load i32, i32* %9, align 4
  %88 = add nsw i32 %87, 1
  store i32 %88, i32* %9, align 4
  br label %57

89:                                               ; preds = %70
  %90 = load i32, i32* %9, align 4
  %91 = add nsw i32 %90, -1
  store i32 %91, i32* %9, align 4
  %92 = load i32, i32* %8, align 4
  %93 = add nsw i32 %92, 1
  store i32 %93, i32* %8, align 4
  %94 = sext i32 %93 to i64
  %95 = getelementptr inbounds [101 x [101 x i32]], [101 x [101 x i32]]* %5, i64 0, i64 %94
  %96 = load i32, i32* %9, align 4
  %97 = sext i32 %96 to i64
  %98 = getelementptr inbounds [101 x i32], [101 x i32]* %95, i64 0, i64 %97
  %99 = load i32, i32* %98, align 4
  %100 = icmp ne i32 %99, 0
  br i1 %100, label %101, label %102

101:                                              ; preds = %89
  br label %228

102:                                              ; preds = %89
  br label %103

103:                                              ; preds = %118, %102
  %104 = load i32, i32* %8, align 4
  %105 = sext i32 %104 to i64
  %106 = getelementptr inbounds [101 x [101 x i32]], [101 x [101 x i32]]* %5, i64 0, i64 %105
  %107 = load i32, i32* %9, align 4
  %108 = sext i32 %107 to i64
  %109 = getelementptr inbounds [101 x i32], [101 x i32]* %106, i64 0, i64 %108
  %110 = load i32, i32* %109, align 4
  %111 = icmp eq i32 %110, 0
  br i1 %111, label %112, label %116

112:                                              ; preds = %103
  %113 = load i32, i32* %8, align 4
  %114 = load i32, i32* %7, align 4
  %115 = icmp slt i32 %113, %114
  br label %116

116:                                              ; preds = %112, %103
  %117 = phi i1 [ false, %103 ], [ %115, %112 ]
  br i1 %117, label %118, label %135

118:                                              ; preds = %116
  %119 = load i32, i32* %8, align 4
  %120 = sext i32 %119 to i64
  %121 = getelementptr inbounds [101 x [101 x i32]], [101 x [101 x i32]]* %2, i64 0, i64 %120
  %122 = load i32, i32* %9, align 4
  %123 = sext i32 %122 to i64
  %124 = getelementptr inbounds [101 x i32], [101 x i32]* %121, i64 0, i64 %123
  %125 = load i32, i32* %124, align 4
  %126 = call i32 (i8*, ...) @printf(i8* getelementptr inbounds ([4 x i8], [4 x i8]* @.str.2, i64 0, i64 0), i32 %125)
  %127 = load i32, i32* %8, align 4
  %128 = sext i32 %127 to i64
  %129 = getelementptr inbounds [101 x [101 x i32]], [101 x [101 x i32]]* %5, i64 0, i64 %128
  %130 = load i32, i32* %9, align 4
  %131 = sext i32 %130 to i64
  %132 = getelementptr inbounds [101 x i32], [101 x i32]* %129, i64 0, i64 %131
  store i32 1, i32* %132, align 4
  %133 = load i32, i32* %8, align 4
  %134 = add nsw i32 %133, 1
  store i32 %134, i32* %8, align 4
  br label %103

135:                                              ; preds = %116
  %136 = load i32, i32* %8, align 4
  %137 = add nsw i32 %136, -1
  store i32 %137, i32* %8, align 4
  %138 = load i32, i32* %8, align 4
  %139 = sext i32 %138 to i64
  %140 = getelementptr inbounds [101 x [101 x i32]], [101 x [101 x i32]]* %5, i64 0, i64 %139
  %141 = load i32, i32* %9, align 4
  %142 = add nsw i32 %141, -1
  store i32 %142, i32* %9, align 4
  %143 = sext i32 %142 to i64
  %144 = getelementptr inbounds [101 x i32], [101 x i32]* %140, i64 0, i64 %143
  %145 = load i32, i32* %144, align 4
  %146 = icmp ne i32 %145, 0
  br i1 %146, label %147, label %148

147:                                              ; preds = %135
  br label %228

148:                                              ; preds = %135
  br label %149

149:                                              ; preds = %163, %148
  %150 = load i32, i32* %8, align 4
  %151 = sext i32 %150 to i64
  %152 = getelementptr inbounds [101 x [101 x i32]], [101 x [101 x i32]]* %5, i64 0, i64 %151
  %153 = load i32, i32* %9, align 4
  %154 = sext i32 %153 to i64
  %155 = getelementptr inbounds [101 x i32], [101 x i32]* %152, i64 0, i64 %154
  %156 = load i32, i32* %155, align 4
  %157 = icmp eq i32 %156, 0
  br i1 %157, label %158, label %161

158:                                              ; preds = %149
  %159 = load i32, i32* %9, align 4
  %160 = icmp sge i32 %159, 0
  br label %161

161:                                              ; preds = %158, %149
  %162 = phi i1 [ false, %149 ], [ %160, %158 ]
  br i1 %162, label %163, label %180

163:                                              ; preds = %161
  %164 = load i32, i32* %8, align 4
  %165 = sext i32 %164 to i64
  %166 = getelementptr inbounds [101 x [101 x i32]], [101 x [101 x i32]]* %2, i64 0, i64 %165
  %167 = load i32, i32* %9, align 4
  %168 = sext i32 %167 to i64
  %169 = getelementptr inbounds [101 x i32], [101 x i32]* %166, i64 0, i64 %168
  %170 = load i32, i32* %169, align 4
  %171 = call i32 (i8*, ...) @printf(i8* getelementptr inbounds ([4 x i8], [4 x i8]* @.str.2, i64 0, i64 0), i32 %170)
  %172 = load i32, i32* %8, align 4
  %173 = sext i32 %172 to i64
  %174 = getelementptr inbounds [101 x [101 x i32]], [101 x [101 x i32]]* %5, i64 0, i64 %173
  %175 = load i32, i32* %9, align 4
  %176 = sext i32 %175 to i64
  %177 = getelementptr inbounds [101 x i32], [101 x i32]* %174, i64 0, i64 %176
  store i32 1, i32* %177, align 4
  %178 = load i32, i32* %9, align 4
  %179 = add nsw i32 %178, -1
  store i32 %179, i32* %9, align 4
  br label %149

180:                                              ; preds = %161
  %181 = load i32, i32* %9, align 4
  %182 = add nsw i32 %181, 1
  store i32 %182, i32* %9, align 4
  %183 = load i32, i32* %8, align 4
  %184 = add nsw i32 %183, -1
  store i32 %184, i32* %8, align 4
  %185 = sext i32 %184 to i64
  %186 = getelementptr inbounds [101 x [101 x i32]], [101 x [101 x i32]]* %5, i64 0, i64 %185
  %187 = load i32, i32* %9, align 4
  %188 = sext i32 %187 to i64
  %189 = getelementptr inbounds [101 x i32], [101 x i32]* %186, i64 0, i64 %188
  %190 = load i32, i32* %189, align 4
  %191 = icmp ne i32 %190, 0
  br i1 %191, label %192, label %193

192:                                              ; preds = %180
  br label %228

193:                                              ; preds = %180
  br label %194

194:                                              ; preds = %208, %193
  %195 = load i32, i32* %8, align 4
  %196 = sext i32 %195 to i64
  %197 = getelementptr inbounds [101 x [101 x i32]], [101 x [101 x i32]]* %5, i64 0, i64 %196
  %198 = load i32, i32* %9, align 4
  %199 = sext i32 %198 to i64
  %200 = getelementptr inbounds [101 x i32], [101 x i32]* %197, i64 0, i64 %199
  %201 = load i32, i32* %200, align 4
  %202 = icmp eq i32 %201, 0
  br i1 %202, label %203, label %206

203:                                              ; preds = %194
  %204 = load i32, i32* %8, align 4
  %205 = icmp sge i32 %204, 0
  br label %206

206:                                              ; preds = %203, %194
  %207 = phi i1 [ false, %194 ], [ %205, %203 ]
  br i1 %207, label %208, label %225

208:                                              ; preds = %206
  %209 = load i32, i32* %8, align 4
  %210 = sext i32 %209 to i64
  %211 = getelementptr inbounds [101 x [101 x i32]], [101 x [101 x i32]]* %2, i64 0, i64 %210
  %212 = load i32, i32* %9, align 4
  %213 = sext i32 %212 to i64
  %214 = getelementptr inbounds [101 x i32], [101 x i32]* %211, i64 0, i64 %213
  %215 = load i32, i32* %214, align 4
  %216 = call i32 (i8*, ...) @printf(i8* getelementptr inbounds ([4 x i8], [4 x i8]* @.str.2, i64 0, i64 0), i32 %215)
  %217 = load i32, i32* %8, align 4
  %218 = sext i32 %217 to i64
  %219 = getelementptr inbounds [101 x [101 x i32]], [101 x [101 x i32]]* %5, i64 0, i64 %218
  %220 = load i32, i32* %9, align 4
  %221 = sext i32 %220 to i64
  %222 = getelementptr inbounds [101 x i32], [101 x i32]* %219, i64 0, i64 %221
  store i32 1, i32* %222, align 4
  %223 = load i32, i32* %8, align 4
  %224 = add nsw i32 %223, -1
  store i32 %224, i32* %8, align 4
  br label %194

225:                                              ; preds = %206
  %226 = load i32, i32* %8, align 4
  %227 = add nsw i32 %226, 1
  store i32 %227, i32* %8, align 4
  br label %45

228:                                              ; preds = %192, %147, %101, %55
  ret i32 0
}

; Function Attrs: argmemonly nounwind willreturn
declare void @llvm.memset.p0i8.i64(i8* nocapture writeonly, i8, i64, i1 immarg) #1

declare dso_local i32 @__isoc99_scanf(i8*, ...) #2

declare dso_local i32 @printf(i8*, ...) #2


!llvm.module.flags = !{!0}
!llvm.ident = !{!1}

!0 = !{i32 1, !"wchar_size", i32 4}
!1 = !{!"clang version 10.0.0-4ubuntu1 "}
